	.file	"main.c"
	.text
	.globl	powerOfNumber
	.type	powerOfNumber, @function
powerOfNumber:
.LFB0:
	.cfi_startproc
	endbr64
	pushq	%rbp
	.cfi_def_cfa_offset 16
	.cfi_offset 6, -16
	movq	%rsp, %rbp
	.cfi_def_cfa_register 6
	subq	$32, %rsp
	movl	%edi, -20(%rbp)
	movl	%esi, -24(%rbp)
	cmpl	$0, -24(%rbp)
	jne	.L2
	movl	$1, %eax
	jmp	.L3
.L2:
	movl	-24(%rbp), %eax
	movl	%eax, %edx
	shrl	$31, %edx
	addl	%edx, %eax
	sarl	%eax
	movl	%eax, %edx
	movl	-20(%rbp), %eax
	movl	%edx, %esi
	movl	%eax, %edi
	call	powerOfNumber
	movl	%eax, -4(%rbp)
	movl	-24(%rbp), %eax
	andl	$1, %eax
	testl	%eax, %eax
	jne	.L4
	movl	-4(%rbp), %eax
	imull	%eax, %eax
	jmp	.L3
.L4:
	movl	-20(%rbp), %eax
	imull	-4(%rbp), %eax
	imull	-4(%rbp), %eax
.L3:
	leave
	.cfi_def_cfa 7, 8
	ret
	.cfi_endproc
.LFE0:
	.size	powerOfNumber, .-powerOfNumber
	.section	.rodata
.LC0:
	.string	"%d \n"
	.text
	.globl	main
	.type	main, @function
main:
.LFB1:
	.cfi_startproc
	endbr64
	pushq	%rbp
	.cfi_def_cfa_offset 16
	.cfi_offset 6, -16
	movq	%rsp, %rbp
	.cfi_def_cfa_register 6
	subq	$16, %rsp
	movl	$0, -8(%rbp)
	jmp	.L6
.L7:
	movl	$10, %esi
	movl	$2, %edi
	call	powerOfNumber
	movl	%eax, -4(%rbp)
	movl	-4(%rbp), %eax
	movl	%eax, %esi
	leaq	.LC0(%rip), %rax
	movq	%rax, %rdi
	movl	$0, %eax
	call	printf@PLT
	addl	$1, -8(%rbp)
.L6:
	cmpl	$9, -8(%rbp)
	jle	.L7
	movl	$0, %eax
	leave
	.cfi_def_cfa 7, 8
	ret
	.cfi_endproc
.LFE1:
	.size	main, .-main
	.ident	"GCC: (Ubuntu 11.4.0-1ubuntu1~22.04) 11.4.0"
	.section	.note.GNU-stack,"",@progbits
	.section	.note.gnu.property,"a"
	.align 8
	.long	1f - 0f
	.long	4f - 1f
	.long	5
0:
	.string	"GNU"
1:
	.align 8
	.long	0xc0000002
	.long	3f - 2f
2:
	.long	0x3
3:
	.align 8
4:
